target datalayout = "e-m:e-p270:32:32-p271:32:32-p272:64:64-i64:64-i128:128-f80:128-n8:16:32:64-S128"
target triple = "x86_64-pc-linux-gnu"

; Function Attrs: mustprogress nounwind uwtable
define noundef zeroext i8 @_ZN6icu_778Calendar20julianDayToDayOfWeekEi(i32 noundef %0) #0 align 2 {
  %2 = alloca i32, align 4
  %3 = alloca i8, align 1
  %4 = alloca i8, align 1
  store i32 %0, ptr %2, align 4, !tbaa !14
  call void @llvm.lifetime.start.p0(i64 1, ptr %3) #16
  %5 = load i32, ptr %2, align 4, !tbaa !14
  %6 = sext i32 %5 to i64
  %7 = add nsw i64 %6, 1
  %8 = srem i64 %7, 7
  %9 = trunc i64 %8 to i8
  store i8 %9, ptr %3, align 1, !tbaa !70
  call void @llvm.lifetime.start.p0(i64 1, ptr %4) #16
  %10 = load i8, ptr %3, align 1, !tbaa !70
  %11 = sext i8 %10 to i32
  %12 = load i8, ptr %3, align 1, !tbaa !70
  %13 = sext i8 %12 to i32
  %14 = icmp slt i32 %13, 0
  %15 = select i1 %14, i32 8, i32 1
  %16 = add nsw i32 %11, %15
  %17 = trunc i32 %16 to i8
  store i8 %17, ptr %4, align 1, !tbaa !70
  %18 = load i8, ptr %4, align 1, !tbaa !70
  call void @llvm.lifetime.end.p0(i64 1, ptr %4) #16
  call void @llvm.lifetime.end.p0(i64 1, ptr %3) #16
  ret i8 %18
}