; Function Attrs: mustprogress nofree norecurse nosync nounwind willreturn memory(none) uwtable
define noundef zeroext range(i8 -5, 15) i8 @_ZN6icu_778Calendar20julianDayToDayOfWeekEi(i32 noundef %0) local_unnamed_addr #20 align 2 {
  %2 = sext i32 %0 to i64
  %3 = add nsw i64 %2, 1
  %4 = srem i64 %3, 7
  %5 = trunc nsw i64 %4 to i8
  %6 = icmp slt i64 %4, 0
  %7 = select i1 %6, i8 8, i8 1
  %8 = add nsw i8 %7, %5
  ret i8 %8
}